; Function Attrs: mustprogress nofree nounwind willreturn memory(read, inaccessiblemem: none) uwtable
define noundef ptr @_ZN7rocksdb9lru_cache14LRUHandleTable11FindPointerERKNS_5SliceEj(ptr nocapture noundef nonnull readonly align 8 dereferenceable(32) %this, ptr nocapture noundef nonnull readonly align 8 dereferenceable(16) %key, i32 noundef %hash) local_unnamed_addr #5 align 2 {
entry:
  %list_ = getelementptr inbounds i8, ptr %this, i64 8
  %0 = load i32, ptr %this, align 8
  %sub = sub nsw i32 32, %0
  %shr = lshr i32 %hash, %sub
  %conv = zext i32 %shr to i64
  %1 = load ptr, ptr %list_, align 8
  %arrayidx.i = getelementptr inbounds ptr, ptr %1, i64 %conv
  %2 = load ptr, ptr %arrayidx.i, align 8
  %cmp.not7 = icmp eq ptr %2, null
  br i1 %cmp.not7, label %while.end, label %land.rhs.lr.ph

land.rhs.lr.ph:                                   ; preds = %entry
  %size_.i.i.i = getelementptr inbounds i8, ptr %key, i64 8
  %3 = load i64, ptr %size_.i.i.i, align 8
  %4 = load ptr, ptr %key, align 8
  br label %land.rhs

land.rhs:                                         ; preds = %land.rhs.lr.ph, %while.body
  %5 = phi ptr [ %2, %land.rhs.lr.ph ], [ %8, %while.body ]
  %ptr.08 = phi ptr [ %arrayidx.i, %land.rhs.lr.ph ], [ %next_hash, %while.body ]
  %hash2 = getelementptr inbounds i8, ptr %5, i64 56
  %6 = load i32, ptr %hash2, align 8
  %cmp3.not = icmp eq i32 %6, %hash
  br i1 %cmp3.not, label %lor.rhs, label %while.body

lor.rhs:                                          ; preds = %land.rhs
  %key_length.i = getelementptr inbounds i8, ptr %5, i64 48
  %7 = load i64, ptr %key_length.i, align 8
  %cmp.i.i = icmp eq i64 %3, %7
  br i1 %cmp.i.i, label %_ZN7rocksdbneERKNS_5SliceES2_.exit, label %while.body

_ZN7rocksdbneERKNS_5SliceES2_.exit:               ; preds = %lor.rhs
  %key_data.i = getelementptr inbounds i8, ptr %5, i64 66
  %bcmp.i.i = tail call i32 @bcmp(ptr %4, ptr nonnull %key_data.i, i64 %3)
  %cmp6.i.i.not = icmp eq i32 %bcmp.i.i, 0
  br i1 %cmp6.i.i.not, label %while.end, label %while.body

while.body:                                       ; preds = %lor.rhs, %land.rhs, %_ZN7rocksdbneERKNS_5SliceES2_.exit
  %next_hash = getelementptr inbounds i8, ptr %5, i64 16
  %8 = load ptr, ptr %next_hash, align 8
  %cmp.not = icmp eq ptr %8, null
  br i1 %cmp.not, label %while.end, label %land.rhs, !llvm.loop !7

while.end:                                        ; preds = %_ZN7rocksdbneERKNS_5SliceES2_.exit, %while.body, %entry
  %ptr.0.lcssa = phi ptr [ %arrayidx.i, %entry ], [ %next_hash, %while.body ], [ %ptr.08, %_ZN7rocksdbneERKNS_5SliceES2_.exit ]
  ret ptr %ptr.0.lcssa
}